; ModuleID = '15/27.c'
source_filename = "15/27.c"
target datalayout = "e-m:e-p270:32:32-p271:32:32-p272:64:64-i64:64-f80:128-n8:16:32:64-S128"
target triple = "x86_64-pc-linux-gnu"

@.str = private unnamed_addr constant [3 x i8] c"%d\00", align 1

; Function Attrs: noinline nounwind uwtable
define dso_local i32 @main() #0 {
  %1 = alloca i32, align 4
  %2 = alloca i32, align 4
  %3 = alloca i32, align 4
  %4 = alloca i32, align 4
  %5 = alloca i32, align 4
  %6 = alloca i32, align 4
  %7 = alloca i32, align 4
  %8 = alloca [10000 x i32], align 16
  store i32 0, i32* %1, align 4
  %9 = call i32 (i8*, ...) @__isoc99_scanf(i8* getelementptr inbounds ([3 x i8], [3 x i8]* @.str, i64 0, i64 0), i32* %2)
  store i32 0, i32* %3, align 4
  br label %10

10:                                               ; preds = %61, %0
  %11 = load i32, i32* %3, align 4
  %12 = load i32, i32* %2, align 4
  %13 = icmp slt i32 %11, %12
  br i1 %13, label %14, label %64

14:                                               ; preds = %10
  store i32 0, i32* %4, align 4
  br label %15

15:                                               ; preds = %57, %14
  %16 = load i32, i32* %4, align 4
  %17 = load i32, i32* %2, align 4
  %18 = icmp slt i32 %16, %17
  br i1 %18, label %19, label %60

19:                                               ; preds = %15
  %20 = getelementptr inbounds [10000 x i32], [10000 x i32]* %8, i64 0, i64 0
  store i32 255, i32* %20, align 16
  %21 = load i32, i32* %4, align 4
  %22 = add nsw i32 %21, 1
  %23 = sext i32 %22 to i64
  %24 = getelementptr inbounds [10000 x i32], [10000 x i32]* %8, i64 0, i64 %23
  %25 = call i32 (i8*, ...) @__isoc99_scanf(i8* getelementptr inbounds ([3 x i8], [3 x i8]* @.str, i64 0, i64 0), i32* %24)
  %26 = load i32, i32* %4, align 4
  %27 = sext i32 %26 to i64
  %28 = getelementptr inbounds [10000 x i32], [10000 x i32]* %8, i64 0, i64 %27
  %29 = load i32, i32* %28, align 4
  %30 = icmp eq i32 %29, 0
  br i1 %30, label %31, label %40

31:                                               ; preds = %19
  %32 = load i32, i32* %4, align 4
  %33 = sub nsw i32 %32, 1
  %34 = sext i32 %33 to i64
  %35 = getelementptr inbounds [10000 x i32], [10000 x i32]* %8, i64 0, i64 %34
  %36 = load i32, i32* %35, align 4
  %37 = icmp eq i32 %36, 255
  br i1 %37, label %38, label %40

38:                                               ; preds = %31
  %39 = load i32, i32* %4, align 4
  store i32 %39, i32* %6, align 4
  br label %40

40:                                               ; preds = %38, %31, %19
  %41 = load i32, i32* %4, align 4
  %42 = sub nsw i32 %41, 1
  %43 = sext i32 %42 to i64
  %44 = getelementptr inbounds [10000 x i32], [10000 x i32]* %8, i64 0, i64 %43
  %45 = load i32, i32* %44, align 4
  %46 = icmp eq i32 %45, 0
  br i1 %46, label %47, label %56

47:                                               ; preds = %40
  %48 = load i32, i32* %4, align 4
  %49 = sext i32 %48 to i64
  %50 = getelementptr inbounds [10000 x i32], [10000 x i32]* %8, i64 0, i64 %49
  %51 = load i32, i32* %50, align 4
  %52 = icmp eq i32 %51, 255
  br i1 %52, label %53, label %56

53:                                               ; preds = %47
  %54 = load i32, i32* %4, align 4
  %55 = sub nsw i32 %54, 1
  store i32 %55, i32* %7, align 4
  br label %56

56:                                               ; preds = %53, %47, %40
  br label %57

57:                                               ; preds = %56
  %58 = load i32, i32* %4, align 4
  %59 = add nsw i32 %58, 1
  store i32 %59, i32* %4, align 4
  br label %15

60:                                               ; preds = %15
  br label %61

61:                                               ; preds = %60
  %62 = load i32, i32* %3, align 4
  %63 = add nsw i32 %62, 1
  store i32 %63, i32* %3, align 4
  br label %10

64:                                               ; preds = %10
  %65 = load i32, i32* %7, align 4
  %66 = load i32, i32* %6, align 4
  %67 = sub nsw i32 %65, %66
  %68 = sub nsw i32 %67, 1
  %69 = load i32, i32* %7, align 4
  %70 = load i32, i32* %6, align 4
  %71 = sub nsw i32 %69, %70
  %72 = sub nsw i32 %71, 1
  %73 = mul nsw i32 %68, %72
  %74 = call i32 (i8*, ...) @printf(i8* getelementptr inbounds ([3 x i8], [3 x i8]* @.str, i64 0, i64 0), i32 %73)
  ret i32 0
}

declare dso_local i32 @__isoc99_scanf(i8*, ...) #1

declare dso_local i32 @printf(i8*, ...) #1


!llvm.module.flags = !{!0}
!llvm.ident = !{!1}

!0 = !{i32 1, !"wchar_size", i32 4}
!1 = !{!"clang version 10.0.0-4ubuntu1 "}
